; Function Attrs: nounwind uwtable
define internal noundef i32 @mov_text_encode_close(ptr noundef readonly captures(none) %0) #1 {
  %2 = getelementptr inbounds nuw i8, ptr %0, i64 32
  %3 = load ptr, ptr %2, align 8, !tbaa !4
  %4 = getelementptr inbounds nuw i8, ptr %3, i64 16
  %5 = load ptr, ptr %4, align 8, !tbaa !39
  tail call void @ff_ass_split_free(ptr noundef %5) #8
  %6 = getelementptr inbounds nuw i8, ptr %3, i64 32
  tail call void @av_freep(ptr noundef nonnull %6) #8
  %7 = getelementptr inbounds nuw i8, ptr %3, i64 1120
  tail call void @av_freep(ptr noundef nonnull %7) #8
  ret i32 0
}